; Function Attrs: mustprogress nofree norecurse nosync nounwind willreturn memory(argmem: read) uwtable
define noundef zeroext i1 @_Z21ir_haveBoxDeformationRK10t_inputrec(ptr noundef nonnull readonly align 8 captures(none) dereferenceable(880) %0) local_unnamed_addr #15 {
  %2 = getelementptr inbounds nuw i8, ptr %0, i64 676
  br label %.preheader

.preheader:                                       ; preds = %1, %8
  %indvars.iv21 = phi i64 [ 0, %1 ], [ %indvars.iv.next22, %8 ]
  br label %4

3:                                                ; preds = %4
  %indvars.iv.next = add nuw nsw i64 %indvars.iv, 1
  %exitcond = icmp eq i64 %indvars.iv.next, 3
  br i1 %exitcond, label %8, label %4, !llvm.loop !263

4:                                                ; preds = %.preheader, %3
  %indvars.iv = phi i64 [ 0, %.preheader ], [ %indvars.iv.next, %3 ]
  %5 = getelementptr inbounds nuw [3 x [3 x float]], ptr %2, i64 0, i64 %indvars.iv21, i64 %indvars.iv
  %6 = load float, ptr %5, align 4, !tbaa !243
  %7 = fcmp une float %6, 0.000000e+00
  br i1 %7, label %.loopexit, label %3

8:                                                ; preds = %3
  %indvars.iv.next22 = add nuw nsw i64 %indvars.iv21, 1
  %exitcond24.not = icmp eq i64 %indvars.iv.next22, 3
  br i1 %exitcond24.not, label %.loopexit, label %.preheader, !llvm.loop !264

.loopexit:                                        ; preds = %8, %4
  ret i1 %7
}